target datalayout = "e-m:e-p270:32:32-p271:32:32-p272:64:64-i64:64-i128:128-f80:128-n8:16:32:64-S128"
target triple = "x86_64-pc-linux-gnu"

%struct._interface_config = type { i32, i32, ptr }

@.str.602 = private unnamed_addr constant [21 x i8] c"Name cannot be empty\00", align 1
@.str.603 = private unnamed_addr constant [64 x i8] c"We currently only support 32 bit identifiers (ID: %i  Name: %s)\00", align 1
@.str.604 = private unnamed_addr constant [80 x i8] c"We currently only support 16 bit bus identifiers (ID: %i  Name: %s  Bus-ID: %i)\00", align 1

; Function Attrs: null_pointer_is_valid sspstrong uwtable
define internal zeroext i1 @update_interface_config(ptr noundef %0, ptr noundef %1) #0 {
  %3 = alloca i1, align 1
  %4 = alloca ptr, align 8
  %5 = alloca ptr, align 8
  %6 = alloca ptr, align 8
  %7 = alloca i32, align 4
  store ptr %0, ptr %4, align 8
  store ptr %1, ptr %5, align 8
  call void @llvm.lifetime.start.p0(i64 8, ptr %6) #8
  %8 = load ptr, ptr %4, align 8
  store ptr %8, ptr %6, align 8
  %9 = load ptr, ptr %6, align 8
  %10 = getelementptr inbounds nuw %struct._interface_config, ptr %9, i32 0, i32 0
  %11 = load i32, ptr %10, align 8
  %12 = icmp ugt i32 %11, -1
  br i1 %12, label %13, label %22

13:                                               ; preds = %2
  %14 = load ptr, ptr %6, align 8
  %15 = getelementptr inbounds nuw %struct._interface_config, ptr %14, i32 0, i32 0
  %16 = load i32, ptr %15, align 8
  %17 = load ptr, ptr %6, align 8
  %18 = getelementptr inbounds nuw %struct._interface_config, ptr %17, i32 0, i32 2
  %19 = load ptr, ptr %18, align 8
  %20 = call noalias ptr (ptr, ptr, ...) @wmem_strdup_printf(ptr noundef null, ptr noundef @.str.603, i32 noundef %16, ptr noundef %19)
  %21 = load ptr, ptr %5, align 8
  store ptr %20, ptr %21, align 8
  store i1 false, ptr %3, align 1
  store i32 1, ptr %7, align 4
  br label %56

22:                                               ; preds = %2
  %23 = load ptr, ptr %6, align 8
  %24 = getelementptr inbounds nuw %struct._interface_config, ptr %23, i32 0, i32 2
  %25 = load ptr, ptr %24, align 8
  %26 = icmp eq ptr %25, null
  br i1 %26, label %35, label %27

27:                                               ; preds = %22
  %28 = load ptr, ptr %6, align 8
  %29 = getelementptr inbounds nuw %struct._interface_config, ptr %28, i32 0, i32 2
  %30 = load ptr, ptr %29, align 8
  %31 = getelementptr i8, ptr %30, i64 0
  %32 = load i8, ptr %31, align 1
  %33 = sext i8 %32 to i32
  %34 = icmp eq i32 %33, 0
  br i1 %34, label %35, label %38

35:                                               ; preds = %27, %22
  %36 = call noalias ptr @g_strdup(ptr noundef @.str.602)
  %37 = load ptr, ptr %5, align 8
  store ptr %36, ptr %37, align 8
  store i1 false, ptr %3, align 1
  store i32 1, ptr %7, align 4
  br label %56

38:                                               ; preds = %27
  %39 = load ptr, ptr %6, align 8
  %40 = getelementptr inbounds nuw %struct._interface_config, ptr %39, i32 0, i32 1
  %41 = load i32, ptr %40, align 4
  %42 = icmp ugt i32 %41, 65535
  br i1 %42, label %43, label %55

43:                                               ; preds = %38
  %44 = load ptr, ptr %6, align 8
  %45 = getelementptr inbounds nuw %struct._interface_config, ptr %44, i32 0, i32 0
  %46 = load i32, ptr %45, align 8
  %47 = load ptr, ptr %6, align 8
  %48 = getelementptr inbounds nuw %struct._interface_config, ptr %47, i32 0, i32 2
  %49 = load ptr, ptr %48, align 8
  %50 = load ptr, ptr %6, align 8
  %51 = getelementptr inbounds nuw %struct._interface_config, ptr %50, i32 0, i32 1
  %52 = load i32, ptr %51, align 4
  %53 = call noalias ptr (ptr, ptr, ...) @wmem_strdup_printf(ptr noundef null, ptr noundef @.str.604, i32 noundef %46, ptr noundef %49, i32 noundef %52)
  %54 = load ptr, ptr %5, align 8
  store ptr %53, ptr %54, align 8
  store i1 false, ptr %3, align 1
  store i32 1, ptr %7, align 4
  br label %56

55:                                               ; preds = %38
  store i1 true, ptr %3, align 1
  store i32 1, ptr %7, align 4
  br label %56

56:                                               ; preds = %55, %43, %35, %13
  call void @llvm.lifetime.end.p0(i64 8, ptr %6) #8
  %57 = load i1, ptr %3, align 1
  ret i1 %57
}