; Function Attrs: null_pointer_is_valid sspstrong uwtable
define internal noundef zeroext i1 @update_interface_config(ptr noundef readonly captures(none) %0, ptr noundef writeonly captures(none) %1) #0 {
  %3 = load i32, ptr %0, align 8
  %4 = getelementptr inbounds nuw i8, ptr %0, i64 8
  %5 = load ptr, ptr %4, align 8
  %6 = icmp eq ptr %5, null
  br i1 %6, label %10, label %7

7:                                                ; preds = %2
  %8 = load i8, ptr %5, align 1
  %9 = icmp eq i8 %8, 0
  br i1 %9, label %10, label %12

10:                                               ; preds = %7, %2
  %11 = tail call noalias ptr @g_strdup(ptr noundef nonnull @.str.602)
  br label %.sink.split

12:                                               ; preds = %7
  %13 = getelementptr inbounds nuw i8, ptr %0, i64 4
  %14 = load i32, ptr %13, align 4
  %15 = icmp ugt i32 %14, 65535
  br i1 %15, label %16, label %18

16:                                               ; preds = %12
  %17 = tail call noalias ptr (ptr, ptr, ...) @wmem_strdup_printf(ptr noundef null, ptr noundef nonnull @.str.604, i32 noundef %3, ptr noundef nonnull %5, i32 noundef %14)
  br label %.sink.split

.sink.split:                                      ; preds = %10, %16
  %.sink = phi ptr [ %17, %16 ], [ %11, %10 ]
  store ptr %.sink, ptr %1, align 8
  br label %18

18:                                               ; preds = %.sink.split, %12
  %.0 = phi i1 [ true, %12 ], [ false, %.sink.split ]
  ret i1 %.0
}